; Function Attrs: nounwind uwtable
define internal noundef i32 @dydt(double %0, ptr noundef %1, ptr noundef %2, ptr readnone captures(none) %3) #0 {
  %5 = tail call ptr @N_VGetArrayPointer(ptr noundef %1) #14
  %6 = tail call ptr @N_VGetArrayPointer(ptr noundef %2) #14
  %7 = load double, ptr %5, align 8, !tbaa !32
  %8 = getelementptr inbounds nuw i8, ptr %5, i64 8
  %9 = load double, ptr %8, align 8, !tbaa !32
  %10 = fmul double %9, %9
  %11 = tail call double @llvm.fmuladd.f64(double %7, double %7, double %10)
  %12 = fcmp ugt double %11, 0.000000e+00
  %sqrt.i = tail call double @llvm.sqrt.f64(double %11)
  %13 = select i1 %12, double %sqrt.i, double 0.000000e+00
  %14 = fneg double %7
  %15 = tail call double @SUNRpowerR(double noundef %13, double noundef 3.000000e+00) #14
  %16 = fdiv double %14, %15
  %17 = getelementptr inbounds nuw i8, ptr %6, i64 16
  store double %16, ptr %17, align 8, !tbaa !32
  %18 = fneg double %9
  %19 = tail call double @SUNRpowerR(double noundef %13, double noundef 3.000000e+00) #14
  %20 = fdiv double %18, %19
  %21 = getelementptr inbounds nuw i8, ptr %6, i64 24
  store double %20, ptr %21, align 8, !tbaa !32
  %22 = tail call ptr @N_VGetArrayPointer(ptr noundef %1) #14
  %23 = tail call ptr @N_VGetArrayPointer(ptr noundef %2) #14
  %24 = getelementptr inbounds nuw i8, ptr %22, i64 16
  %25 = load double, ptr %24, align 8, !tbaa !32
  %26 = getelementptr inbounds nuw i8, ptr %22, i64 24
  %27 = load double, ptr %26, align 8, !tbaa !32
  store double %25, ptr %23, align 8, !tbaa !32
  %28 = getelementptr inbounds nuw i8, ptr %23, i64 8
  store double %27, ptr %28, align 8, !tbaa !32
  ret i32 0
}